; Function Attrs: nounwind uwtable
define internal noundef i32 @_handle_get_universe_size(i32 noundef %0, i32 %1, ptr readnone captures(none) %2) #0 {
  %4 = tail call i32 @slurm_get_log_level() #8
  %5 = icmp sgt i32 %4, 6
  br i1 %5, label %6, label %7

6:                                                ; preds = %3
  tail call void (i32, ptr, ...) @slurm_log_var(i32 noundef 7, ptr noundef nonnull @.str.31, ptr noundef nonnull @plugin_type, ptr noundef nonnull @__func__._handle_get_universe_size) #8
  br label %7

7:                                                ; preds = %6, %3
  %8 = tail call ptr @client_resp_new() #8
  %9 = load i32, ptr getelementptr inbounds nuw (i8, ptr @job_info, i64 36), align 4
  tail call void (ptr, ptr, ...) @slurm_xstrfmtcat(ptr noundef %8, ptr noundef nonnull @.str.32, i32 noundef 0, i32 noundef %9) #8
  %10 = tail call i32 @client_resp_send(ptr noundef %8, i32 noundef %0) #8
  tail call void @client_resp_free(ptr noundef %8) #8
  %11 = tail call i32 @slurm_get_log_level() #8
  %12 = icmp sgt i32 %11, 6
  br i1 %12, label %13, label %14

13:                                               ; preds = %7
  tail call void (i32, ptr, ...) @slurm_log_var(i32 noundef 7, ptr noundef nonnull @.str.33, ptr noundef nonnull @plugin_type, ptr noundef nonnull @__func__._handle_get_universe_size) #8
  br label %14

14:                                               ; preds = %13, %7
  ret i32 0
}